target datalayout = "e-m:e-p270:32:32-p271:32:32-p272:64:64-i64:64-i128:128-f80:128-n8:16:32:64-S128"
target triple = "x86_64-pc-linux-gnu"

; Function Attrs: nounwind uwtable
define internal i32 @GetMax(i32 noundef %0, i32 noundef %1) #0 {
  %3 = alloca i32, align 4
  %4 = alloca i32, align 4
  store i32 %0, ptr %3, align 4
  store i32 %1, ptr %4, align 4
  %5 = load i32, ptr %3, align 4
  %6 = load i32, ptr %4, align 4
  %7 = icmp slt i32 %5, %6
  br i1 %7, label %8, label %10

8:                                                ; preds = %2
  %9 = load i32, ptr %4, align 4
  br label %12

10:                                               ; preds = %2
  %11 = load i32, ptr %3, align 4
  br label %12

12:                                               ; preds = %10, %8
  %13 = phi i32 [ %9, %8 ], [ %11, %10 ]
  ret i32 %13
}

; Function Attrs: nounwind uwtable
define internal i32 @MaxDiffBetweenPixels(i32 noundef %0, i32 noundef %1) #0 {
  %3 = alloca i32, align 4
  %4 = alloca i32, align 4
  %5 = alloca i32, align 4
  %6 = alloca i32, align 4
  %7 = alloca i32, align 4
  %8 = alloca i32, align 4
  store i32 %0, ptr %3, align 4
  store i32 %1, ptr %4, align 4
  %9 = load i32, ptr %3, align 4
  %10 = lshr i32 %9, 24
  %11 = load i32, ptr %4, align 4
  %12 = lshr i32 %11, 24
  %13 = sub nsw i32 %10, %12
  %14 = call i32 @llvm.abs.i32(i32 %13, i1 true)
  store i32 %14, ptr %5, align 4
  %15 = load i32, ptr %3, align 4
  %16 = lshr i32 %15, 16
  %17 = and i32 %16, 255
  %18 = load i32, ptr %4, align 4
  %19 = lshr i32 %18, 16
  %20 = and i32 %19, 255
  %21 = sub nsw i32 %17, %20
  %22 = call i32 @llvm.abs.i32(i32 %21, i1 true)
  store i32 %22, ptr %6, align 4
  %23 = load i32, ptr %3, align 4
  %24 = lshr i32 %23, 8
  %25 = and i32 %24, 255
  %26 = load i32, ptr %4, align 4
  %27 = lshr i32 %26, 8
  %28 = and i32 %27, 255
  %29 = sub nsw i32 %25, %28
  %30 = call i32 @llvm.abs.i32(i32 %29, i1 true)
  store i32 %30, ptr %7, align 4
  %31 = load i32, ptr %3, align 4
  %32 = and i32 %31, 255
  %33 = load i32, ptr %4, align 4
  %34 = and i32 %33, 255
  %35 = sub nsw i32 %32, %34
  %36 = call i32 @llvm.abs.i32(i32 %35, i1 true)
  store i32 %36, ptr %8, align 4
  %37 = load i32, ptr %5, align 4
  %38 = load i32, ptr %6, align 4
  %39 = call i32 @GetMax(i32 noundef %37, i32 noundef %38)
  %40 = load i32, ptr %7, align 4
  %41 = load i32, ptr %8, align 4
  %42 = call i32 @GetMax(i32 noundef %40, i32 noundef %41)
  %43 = call i32 @GetMax(i32 noundef %39, i32 noundef %42)
  ret i32 %43
}

; Function Attrs: nounwind uwtable
define internal i32 @MaxDiffAroundPixel(i32 noundef %0, i32 noundef %1, i32 noundef %2, i32 noundef %3, i32 noundef %4) #0 {
  %6 = alloca i32, align 4
  %7 = alloca i32, align 4
  %8 = alloca i32, align 4
  %9 = alloca i32, align 4
  %10 = alloca i32, align 4
  %11 = alloca i32, align 4
  %12 = alloca i32, align 4
  %13 = alloca i32, align 4
  %14 = alloca i32, align 4
  store i32 %0, ptr %6, align 4
  store i32 %1, ptr %7, align 4
  store i32 %2, ptr %8, align 4
  store i32 %3, ptr %9, align 4
  store i32 %4, ptr %10, align 4
  %15 = load i32, ptr %6, align 4
  %16 = load i32, ptr %7, align 4
  %17 = call i32 @MaxDiffBetweenPixels(i32 noundef %15, i32 noundef %16)
  store i32 %17, ptr %11, align 4
  %18 = load i32, ptr %6, align 4
  %19 = load i32, ptr %8, align 4
  %20 = call i32 @MaxDiffBetweenPixels(i32 noundef %18, i32 noundef %19)
  store i32 %20, ptr %12, align 4
  %21 = load i32, ptr %6, align 4
  %22 = load i32, ptr %9, align 4
  %23 = call i32 @MaxDiffBetweenPixels(i32 noundef %21, i32 noundef %22)
  store i32 %23, ptr %13, align 4
  %24 = load i32, ptr %6, align 4
  %25 = load i32, ptr %10, align 4
  %26 = call i32 @MaxDiffBetweenPixels(i32 noundef %24, i32 noundef %25)
  store i32 %26, ptr %14, align 4
  %27 = load i32, ptr %11, align 4
  %28 = load i32, ptr %12, align 4
  %29 = call i32 @GetMax(i32 noundef %27, i32 noundef %28)
  %30 = load i32, ptr %13, align 4
  %31 = load i32, ptr %14, align 4
  %32 = call i32 @GetMax(i32 noundef %30, i32 noundef %31)
  %33 = call i32 @GetMax(i32 noundef %29, i32 noundef %32)
  ret i32 %33
}

; Function Attrs: nounwind uwtable
define internal i32 @AddGreenToBlueAndRed(i32 noundef %0) #0 {
  %2 = alloca i32, align 4
  %3 = alloca i32, align 4
  %4 = alloca i32, align 4
  store i32 %0, ptr %2, align 4
  %5 = load i32, ptr %2, align 4
  %6 = lshr i32 %5, 8
  %7 = and i32 %6, 255
  store i32 %7, ptr %3, align 4
  %8 = load i32, ptr %2, align 4
  %9 = and i32 %8, 16711935
  store i32 %9, ptr %4, align 4
  %10 = load i32, ptr %3, align 4
  %11 = shl i32 %10, 16
  %12 = load i32, ptr %3, align 4
  %13 = or i32 %11, %12
  %14 = load i32, ptr %4, align 4
  %15 = add i32 %14, %13
  store i32 %15, ptr %4, align 4
  %16 = load i32, ptr %4, align 4
  %17 = and i32 %16, 16711935
  store i32 %17, ptr %4, align 4
  %18 = load i32, ptr %2, align 4
  %19 = and i32 %18, -16711936
  %20 = load i32, ptr %4, align 4
  %21 = or i32 %19, %20
  ret i32 %21
}

; Function Attrs: nounwind uwtable
define internal void @MaxDiffsForRow(i32 noundef %0, i32 noundef %1, ptr noundef %2, ptr noundef %3, i32 noundef %4) #0 {
  %6 = alloca i32, align 4
  %7 = alloca i32, align 4
  %8 = alloca ptr, align 8
  %9 = alloca ptr, align 8
  %10 = alloca i32, align 4
  %11 = alloca i32, align 4
  %12 = alloca i32, align 4
  %13 = alloca i32, align 4
  %14 = alloca i32, align 4
  %15 = alloca i32, align 4
  %16 = alloca i32, align 4
  store i32 %0, ptr %6, align 4
  store i32 %1, ptr %7, align 4
  store ptr %2, ptr %8, align 8
  store ptr %3, ptr %9, align 8
  store i32 %4, ptr %10, align 4
  %17 = load i32, ptr %6, align 4
  %18 = icmp sle i32 %17, 2
  br i1 %18, label %19, label %20

19:                                               ; preds = %5
  br label %88

20:                                               ; preds = %5
  %21 = load ptr, ptr %8, align 8
  %22 = getelementptr inbounds i32, ptr %21, i64 0
  %23 = load i32, ptr %22, align 4
  store i32 %23, ptr %11, align 4
  %24 = load ptr, ptr %8, align 8
  %25 = getelementptr inbounds i32, ptr %24, i64 1
  %26 = load i32, ptr %25, align 4
  store i32 %26, ptr %15, align 4
  %27 = load i32, ptr %10, align 4
  %28 = icmp ne i32 %27, 0
  br i1 %28, label %29, label %34

29:                                               ; preds = %20
  %30 = load i32, ptr %11, align 4
  %31 = call i32 @AddGreenToBlueAndRed(i32 noundef %30)
  store i32 %31, ptr %11, align 4
  %32 = load i32, ptr %15, align 4
  %33 = call i32 @AddGreenToBlueAndRed(i32 noundef %32)
  store i32 %33, ptr %15, align 4
  br label %34

34:                                               ; preds = %29, %20
  store i32 1, ptr %16, align 4
  br label %35

35:                                               ; preds = %85, %34
  %36 = load i32, ptr %16, align 4
  %37 = load i32, ptr %6, align 4
  %38 = sub nsw i32 %37, 1
  %39 = icmp slt i32 %36, %38
  br i1 %39, label %40, label %88

40:                                               ; preds = %35
  %41 = load ptr, ptr %8, align 8
  %42 = load i32, ptr %7, align 4
  %43 = sub nsw i32 0, %42
  %44 = load i32, ptr %16, align 4
  %45 = add nsw i32 %43, %44
  %46 = sext i32 %45 to i64
  %47 = getelementptr inbounds i32, ptr %41, i64 %46
  %48 = load i32, ptr %47, align 4
  store i32 %48, ptr %12, align 4
  %49 = load ptr, ptr %8, align 8
  %50 = load i32, ptr %7, align 4
  %51 = load i32, ptr %16, align 4
  %52 = add nsw i32 %50, %51
  %53 = sext i32 %52 to i64
  %54 = getelementptr inbounds i32, ptr %49, i64 %53
  %55 = load i32, ptr %54, align 4
  store i32 %55, ptr %13, align 4
  %56 = load i32, ptr %11, align 4
  store i32 %56, ptr %14, align 4
  %57 = load i32, ptr %15, align 4
  store i32 %57, ptr %11, align 4
  %58 = load ptr, ptr %8, align 8
  %59 = load i32, ptr %16, align 4
  %60 = add nsw i32 %59, 1
  %61 = sext i32 %60 to i64
  %62 = getelementptr inbounds i32, ptr %58, i64 %61
  %63 = load i32, ptr %62, align 4
  store i32 %63, ptr %15, align 4
  %64 = load i32, ptr %10, align 4
  %65 = icmp ne i32 %64, 0
  br i1 %65, label %66, label %73

66:                                               ; preds = %40
  %67 = load i32, ptr %12, align 4
  %68 = call i32 @AddGreenToBlueAndRed(i32 noundef %67)
  store i32 %68, ptr %12, align 4
  %69 = load i32, ptr %13, align 4
  %70 = call i32 @AddGreenToBlueAndRed(i32 noundef %69)
  store i32 %70, ptr %13, align 4
  %71 = load i32, ptr %15, align 4
  %72 = call i32 @AddGreenToBlueAndRed(i32 noundef %71)
  store i32 %72, ptr %15, align 4
  br label %73

73:                                               ; preds = %66, %40
  %74 = load i32, ptr %11, align 4
  %75 = load i32, ptr %12, align 4
  %76 = load i32, ptr %13, align 4
  %77 = load i32, ptr %14, align 4
  %78 = load i32, ptr %15, align 4
  %79 = call i32 @MaxDiffAroundPixel(i32 noundef %74, i32 noundef %75, i32 noundef %76, i32 noundef %77, i32 noundef %78)
  %80 = trunc i32 %79 to i8
  %81 = load ptr, ptr %9, align 8
  %82 = load i32, ptr %16, align 4
  %83 = sext i32 %82 to i64
  %84 = getelementptr inbounds i8, ptr %81, i64 %83
  store i8 %80, ptr %84, align 1
  br label %85

85:                                               ; preds = %73
  %86 = load i32, ptr %16, align 4
  %87 = add nsw i32 %86, 1
  store i32 %87, ptr %16, align 4
  br label %35, !llvm.loop !18

88:                                               ; preds = %35, %19
  ret void
}