; Function Attrs: nofree norecurse nosync nounwind memory(argmem: readwrite) uwtable
define internal fastcc void @MaxDiffsForRow(i32 noundef %0, i32 noundef %1, ptr nocapture noundef readonly %2, ptr nocapture noundef writeonly %3, i32 noundef %4) unnamed_addr #4 {
  %6 = icmp slt i32 %0, 3
  br i1 %6, label %.loopexit, label %7

7:                                                ; preds = %5
  %8 = load <2 x i32>, ptr %2, align 4
  %.not = icmp eq i32 %4, 0
  br i1 %.not, label %.lr.ph.preheader, label %9

9:                                                ; preds = %7
  %10 = lshr <2 x i32> %8, <i32 8, i32 8>
  %11 = and <2 x i32> %8, <i32 16711935, i32 16711935>
  %12 = and <2 x i32> %8, <i32 -16711936, i32 -16711936>
  %13 = and <2 x i32> %10, <i32 255, i32 255>
  %14 = shl nuw nsw <2 x i32> %13, <i32 16, i32 16>
  %15 = add nuw nsw <2 x i32> %13, %11
  %16 = add nuw nsw <2 x i32> %15, %14
  %17 = and <2 x i32> %16, <i32 16711935, i32 16711935>
  %18 = or disjoint <2 x i32> %17, %12
  br label %.lr.ph.preheader

.lr.ph.preheader:                                 ; preds = %7, %9
  %19 = phi <2 x i32> [ %18, %9 ], [ %8, %7 ]
  %20 = sext i32 %1 to i64
  %smax = add nsw i32 %0, -1
  %wide.trip.count = zext nneg i32 %smax to i64
  %invariant.gep = getelementptr i32, ptr %2, i64 %20
  br label %.lr.ph

.lr.ph:                                           ; preds = %.lr.ph.preheader, %58
  %indvars.iv = phi i64 [ 1, %.lr.ph.preheader ], [ %indvars.iv.next, %58 ]
  %21 = phi <2 x i32> [ %19, %.lr.ph.preheader ], [ %142, %58 ]
  %22 = trunc nuw nsw i64 %indvars.iv to i32
  %23 = sub i32 %22, %1
  %24 = sext i32 %23 to i64
  %25 = getelementptr inbounds i32, ptr %2, i64 %24
  %26 = load i32, ptr %25, align 4
  %gep = getelementptr i32, ptr %invariant.gep, i64 %indvars.iv
  %27 = load i32, ptr %gep, align 4
  %indvars.iv.next = add nuw nsw i64 %indvars.iv, 1
  %28 = getelementptr inbounds i32, ptr %2, i64 %indvars.iv.next
  %29 = load i32, ptr %28, align 4
  br i1 %.not, label %58, label %30

30:                                               ; preds = %.lr.ph
  %31 = lshr i32 %26, 8
  %32 = and i32 %31, 255
  %33 = and i32 %26, 16711935
  %34 = shl nuw nsw i32 %32, 16
  %35 = add nuw nsw i32 %32, %33
  %36 = add nuw nsw i32 %35, %34
  %37 = and i32 %36, 16711935
  %38 = and i32 %26, -16711936
  %39 = or disjoint i32 %37, %38
  %40 = lshr i32 %27, 8
  %41 = and i32 %40, 255
  %42 = and i32 %27, 16711935
  %43 = shl nuw nsw i32 %41, 16
  %44 = add nuw nsw i32 %41, %42
  %45 = add nuw nsw i32 %44, %43
  %46 = and i32 %45, 16711935
  %47 = and i32 %27, -16711936
  %48 = or disjoint i32 %46, %47
  %49 = lshr i32 %29, 8
  %50 = and i32 %49, 255
  %51 = and i32 %29, 16711935
  %52 = shl nuw nsw i32 %50, 16
  %53 = add nuw nsw i32 %50, %51
  %54 = add nuw nsw i32 %53, %52
  %55 = and i32 %54, 16711935
  %56 = and i32 %29, -16711936
  %57 = or disjoint i32 %55, %56
  br label %58

58:                                               ; preds = %30, %.lr.ph
  %.033 = phi i32 [ %39, %30 ], [ %26, %.lr.ph ]
  %.032 = phi i32 [ %48, %30 ], [ %27, %.lr.ph ]
  %.2 = phi i32 [ %57, %30 ], [ %29, %.lr.ph ]
  %59 = lshr <2 x i32> %21, <i32 24, i32 24>
  %60 = lshr i32 %.033, 24
  %61 = extractelement <2 x i32> %59, i64 1
  %62 = sub nsw i32 %61, %60
  %63 = tail call i32 @llvm.abs.i32(i32 %62, i1 true)
  %64 = extractelement <2 x i32> %21, i64 1
  %65 = lshr i32 %64, 16
  %66 = and i32 %65, 255
  %67 = lshr i32 %.033, 16
  %68 = and i32 %67, 255
  %69 = sub nsw i32 %66, %68
  %70 = tail call i32 @llvm.abs.i32(i32 %69, i1 true)
  %71 = lshr i32 %64, 8
  %72 = and i32 %71, 255
  %73 = lshr i32 %.033, 8
  %74 = and i32 %73, 255
  %75 = sub nsw i32 %72, %74
  %76 = tail call i32 @llvm.abs.i32(i32 %75, i1 true)
  %77 = and i32 %64, 255
  %78 = and i32 %.033, 255
  %79 = sub nsw i32 %77, %78
  %80 = tail call i32 @llvm.abs.i32(i32 %79, i1 true)
  %81 = tail call i32 @llvm.umax.i32(i32 %63, i32 %70)
  %82 = tail call i32 @llvm.umax.i32(i32 %76, i32 %80)
  %83 = tail call range(i32 0, 256) i32 @llvm.umax.i32(i32 %81, i32 %82)
  %84 = lshr i32 %.032, 24
  %85 = sub nsw i32 %61, %84
  %86 = tail call i32 @llvm.abs.i32(i32 %85, i1 true)
  %87 = lshr i32 %.032, 16
  %88 = and i32 %87, 255
  %89 = sub nsw i32 %66, %88
  %90 = tail call i32 @llvm.abs.i32(i32 %89, i1 true)
  %91 = lshr i32 %.032, 8
  %92 = and i32 %91, 255
  %93 = sub nsw i32 %72, %92
  %94 = tail call i32 @llvm.abs.i32(i32 %93, i1 true)
  %95 = and i32 %.032, 255
  %96 = sub nsw i32 %77, %95
  %97 = tail call i32 @llvm.abs.i32(i32 %96, i1 true)
  %98 = tail call i32 @llvm.umax.i32(i32 %86, i32 %90)
  %99 = tail call i32 @llvm.umax.i32(i32 %94, i32 %97)
  %100 = tail call range(i32 0, 256) i32 @llvm.umax.i32(i32 %98, i32 %99)
  %101 = extractelement <2 x i32> %59, i64 0
  %102 = sub nsw i32 %61, %101
  %103 = tail call i32 @llvm.abs.i32(i32 %102, i1 true)
  %104 = extractelement <2 x i32> %21, i64 0
  %105 = lshr i32 %104, 16
  %106 = and i32 %105, 255
  %107 = sub nsw i32 %66, %106
  %108 = tail call i32 @llvm.abs.i32(i32 %107, i1 true)
  %109 = lshr i32 %104, 8
  %110 = and i32 %109, 255
  %111 = sub nsw i32 %72, %110
  %112 = tail call i32 @llvm.abs.i32(i32 %111, i1 true)
  %113 = and i32 %104, 255
  %114 = sub nsw i32 %77, %113
  %115 = tail call i32 @llvm.abs.i32(i32 %114, i1 true)
  %116 = tail call i32 @llvm.umax.i32(i32 %103, i32 %108)
  %117 = tail call i32 @llvm.umax.i32(i32 %112, i32 %115)
  %118 = tail call range(i32 0, 256) i32 @llvm.umax.i32(i32 %116, i32 %117)
  %119 = lshr i32 %.2, 24
  %120 = sub nsw i32 %61, %119
  %121 = tail call i32 @llvm.abs.i32(i32 %120, i1 true)
  %122 = lshr i32 %.2, 16
  %123 = and i32 %122, 255
  %124 = sub nsw i32 %66, %123
  %125 = tail call i32 @llvm.abs.i32(i32 %124, i1 true)
  %126 = lshr i32 %.2, 8
  %127 = and i32 %126, 255
  %128 = sub nsw i32 %72, %127
  %129 = tail call i32 @llvm.abs.i32(i32 %128, i1 true)
  %130 = and i32 %.2, 255
  %131 = sub nsw i32 %77, %130
  %132 = tail call i32 @llvm.abs.i32(i32 %131, i1 true)
  %133 = tail call i32 @llvm.umax.i32(i32 %121, i32 %125)
  %134 = tail call i32 @llvm.umax.i32(i32 %129, i32 %132)
  %135 = tail call range(i32 0, 256) i32 @llvm.umax.i32(i32 %133, i32 %134)
  %136 = tail call i32 @llvm.umax.i32(i32 %83, i32 %100)
  %137 = tail call i32 @llvm.umax.i32(i32 %118, i32 %135)
  %138 = tail call range(i32 0, 256) i32 @llvm.umax.i32(i32 %136, i32 %137)
  %139 = trunc nuw i32 %138 to i8
  %140 = getelementptr inbounds i8, ptr %3, i64 %indvars.iv
  store i8 %139, ptr %140, align 1
  %exitcond.not = icmp eq i64 %indvars.iv.next, %wide.trip.count
  %141 = shufflevector <2 x i32> %21, <2 x i32> poison, <2 x i32> <i32 1, i32 poison>
  %142 = insertelement <2 x i32> %141, i32 %.2, i64 1
  br i1 %exitcond.not, label %.loopexit, label %.lr.ph, !llvm.loop !24

.loopexit:                                        ; preds = %58, %5
  ret void
}